target datalayout = "e-m:e-p270:32:32-p271:32:32-p272:64:64-i64:64-i128:128-f80:128-n8:16:32:64-S128"
target triple = "x86_64-pc-linux-gnu"

; Function Attrs: nounwind uwtable
define internal i32 @slicendump(i64 noundef %0, ptr noundef %1, ptr noundef %2, ptr noundef %3, ptr noundef %4, i32 noundef %5, i32 noundef %6) #0 {
  %8 = alloca i64, align 8
  %9 = alloca ptr, align 8
  %10 = alloca ptr, align 8
  %11 = alloca ptr, align 8
  %12 = alloca ptr, align 8
  %13 = alloca i32, align 4
  %14 = alloca i32, align 4
  %15 = alloca i32, align 4
  %16 = alloca i32, align 4
  %17 = alloca i32, align 4
  store i64 %0, ptr %8, align 8, !tbaa !13
  store ptr %1, ptr %9, align 8, !tbaa !35
  store ptr %2, ptr %10, align 8, !tbaa !35
  store ptr %3, ptr %11, align 8, !tbaa !35
  store ptr %4, ptr %12, align 8, !tbaa !35
  store i32 %5, ptr %13, align 4, !tbaa !4
  store i32 %6, ptr %14, align 4, !tbaa !4
  call void @llvm.lifetime.start.p0(i64 4, ptr %15) #11
  call void @llvm.lifetime.start.p0(i64 4, ptr %16) #11
  call void @llvm.lifetime.start.p0(i64 4, ptr %17) #11
  store i32 0, ptr %17, align 4, !tbaa !4
  %18 = load i32, ptr %13, align 4, !tbaa !4
  %19 = load i32, ptr %14, align 4, !tbaa !4
  %20 = sub nsw i32 %18, %19
  store i32 %20, ptr %16, align 4, !tbaa !4
  %21 = load i32, ptr %14, align 4, !tbaa !4
  %22 = sub nsw i32 %21, 1
  %23 = icmp sgt i32 %22, 0
  br i1 %23, label %24, label %77

24:                                               ; preds = %7
  store i32 0, ptr %15, align 4, !tbaa !4
  br label %25

25:                                               ; preds = %73, %24
  %26 = load i32, ptr %15, align 4, !tbaa !4
  %27 = sext i32 %26 to i64
  %28 = load ptr, ptr %9, align 8, !tbaa !35
  %29 = load i32, ptr %16, align 4, !tbaa !4
  %30 = sext i32 %29 to i64
  %31 = getelementptr inbounds i64, ptr %28, i64 %30
  %32 = load i64, ptr %31, align 8, !tbaa !13
  %33 = load ptr, ptr %10, align 8, !tbaa !35
  %34 = load i32, ptr %16, align 4, !tbaa !4
  %35 = sext i32 %34 to i64
  %36 = getelementptr inbounds i64, ptr %33, i64 %35
  %37 = load i64, ptr %36, align 8, !tbaa !13
  %38 = icmp ult i64 %32, %37
  br i1 %38, label %39, label %45

39:                                               ; preds = %25
  %40 = load ptr, ptr %9, align 8, !tbaa !35
  %41 = load i32, ptr %16, align 4, !tbaa !4
  %42 = sext i32 %41 to i64
  %43 = getelementptr inbounds i64, ptr %40, i64 %42
  %44 = load i64, ptr %43, align 8, !tbaa !13
  br label %51

45:                                               ; preds = %25
  %46 = load ptr, ptr %10, align 8, !tbaa !35
  %47 = load i32, ptr %16, align 4, !tbaa !4
  %48 = sext i32 %47 to i64
  %49 = getelementptr inbounds i64, ptr %46, i64 %48
  %50 = load i64, ptr %49, align 8, !tbaa !13
  br label %51

51:                                               ; preds = %45, %39
  %52 = phi i64 [ %44, %39 ], [ %50, %45 ]
  %53 = icmp slt i64 %27, %52
  br i1 %53, label %54, label %76

54:                                               ; preds = %51
  %55 = load i32, ptr %15, align 4, !tbaa !4
  %56 = sext i32 %55 to i64
  %57 = load ptr, ptr %11, align 8, !tbaa !35
  %58 = load i32, ptr %16, align 4, !tbaa !4
  %59 = sext i32 %58 to i64
  %60 = getelementptr inbounds i64, ptr %57, i64 %59
  store i64 %56, ptr %60, align 8, !tbaa !13
  %61 = load i64, ptr %8, align 8, !tbaa !13
  %62 = load ptr, ptr %9, align 8, !tbaa !35
  %63 = load ptr, ptr %10, align 8, !tbaa !35
  %64 = load ptr, ptr %11, align 8, !tbaa !35
  %65 = load ptr, ptr %12, align 8, !tbaa !35
  %66 = load i32, ptr %13, align 4, !tbaa !4
  %67 = load i32, ptr %14, align 4, !tbaa !4
  %68 = sub nsw i32 %67, 1
  %69 = call i32 @slicendump(i64 noundef %61, ptr noundef %62, ptr noundef %63, ptr noundef %64, ptr noundef %65, i32 noundef %66, i32 noundef %68)
  store i32 %69, ptr %17, align 4, !tbaa !4
  %70 = icmp slt i32 %69, 0
  br i1 %70, label %71, label %72

71:                                               ; preds = %54
  br label %144

72:                                               ; preds = %54
  br label %73

73:                                               ; preds = %72
  %74 = load i32, ptr %15, align 4, !tbaa !4
  %75 = add nsw i32 %74, 1
  store i32 %75, ptr %15, align 4, !tbaa !4
  br label %25, !llvm.loop !37

76:                                               ; preds = %51
  br label %77

77:                                               ; preds = %76, %7
  %78 = load ptr, ptr %10, align 8, !tbaa !35
  %79 = load i32, ptr %16, align 4, !tbaa !4
  %80 = sext i32 %79 to i64
  %81 = getelementptr inbounds i64, ptr %78, i64 %80
  %82 = load i64, ptr %81, align 8, !tbaa !13
  %83 = load ptr, ptr %9, align 8, !tbaa !35
  %84 = load i32, ptr %16, align 4, !tbaa !4
  %85 = sext i32 %84 to i64
  %86 = getelementptr inbounds i64, ptr %83, i64 %85
  %87 = load i64, ptr %86, align 8, !tbaa !13
  %88 = icmp ule i64 %82, %87
  br i1 %88, label %89, label %90

89:                                               ; preds = %77
  br label %144

90:                                               ; preds = %77
  %91 = load ptr, ptr %9, align 8, !tbaa !35
  %92 = load i32, ptr %16, align 4, !tbaa !4
  %93 = sext i32 %92 to i64
  %94 = getelementptr inbounds i64, ptr %91, i64 %93
  %95 = load i64, ptr %94, align 8, !tbaa !13
  %96 = load ptr, ptr %11, align 8, !tbaa !35
  %97 = load i32, ptr %16, align 4, !tbaa !4
  %98 = sext i32 %97 to i64
  %99 = getelementptr inbounds i64, ptr %96, i64 %98
  store i64 %95, ptr %99, align 8, !tbaa !13
  %100 = load ptr, ptr %10, align 8, !tbaa !35
  %101 = load i32, ptr %16, align 4, !tbaa !4
  %102 = sext i32 %101 to i64
  %103 = getelementptr inbounds i64, ptr %100, i64 %102
  %104 = load i64, ptr %103, align 8, !tbaa !13
  %105 = load ptr, ptr %9, align 8, !tbaa !35
  %106 = load i32, ptr %16, align 4, !tbaa !4
  %107 = sext i32 %106 to i64
  %108 = getelementptr inbounds i64, ptr %105, i64 %107
  %109 = load i64, ptr %108, align 8, !tbaa !13
  %110 = sub i64 %104, %109
  %111 = load ptr, ptr %12, align 8, !tbaa !35
  %112 = load i32, ptr %16, align 4, !tbaa !4
  %113 = sext i32 %112 to i64
  %114 = getelementptr inbounds i64, ptr %111, i64 %113
  store i64 %110, ptr %114, align 8, !tbaa !13
  %115 = load i32, ptr %16, align 4, !tbaa !4
  %116 = add nsw i32 %115, 1
  store i32 %116, ptr %15, align 4, !tbaa !4
  br label %117

117:                                              ; preds = %135, %90
  %118 = load i32, ptr %15, align 4, !tbaa !4
  %119 = load i32, ptr %13, align 4, !tbaa !4
  %120 = icmp slt i32 %118, %119
  br i1 %120, label %121, label %138

121:                                              ; preds = %117
  %122 = load ptr, ptr %11, align 8, !tbaa !35
  %123 = load i32, ptr %15, align 4, !tbaa !4
  %124 = sext i32 %123 to i64
  %125 = getelementptr inbounds i64, ptr %122, i64 %124
  store i64 0, ptr %125, align 8, !tbaa !13
  %126 = load ptr, ptr %10, align 8, !tbaa !35
  %127 = load i32, ptr %15, align 4, !tbaa !4
  %128 = sext i32 %127 to i64
  %129 = getelementptr inbounds i64, ptr %126, i64 %128
  %130 = load i64, ptr %129, align 8, !tbaa !13
  %131 = load ptr, ptr %12, align 8, !tbaa !35
  %132 = load i32, ptr %15, align 4, !tbaa !4
  %133 = sext i32 %132 to i64
  %134 = getelementptr inbounds i64, ptr %131, i64 %133
  store i64 %130, ptr %134, align 8, !tbaa !13
  br label %135

135:                                              ; preds = %121
  %136 = load i32, ptr %15, align 4, !tbaa !4
  %137 = add nsw i32 %136, 1
  store i32 %137, ptr %15, align 4, !tbaa !4
  br label %117, !llvm.loop !38

138:                                              ; preds = %117
  %139 = load i64, ptr %8, align 8, !tbaa !13
  %140 = load ptr, ptr %11, align 8, !tbaa !35
  %141 = load ptr, ptr %12, align 8, !tbaa !35
  %142 = load i32, ptr %13, align 4, !tbaa !4
  %143 = call i32 @doprint(i64 noundef %139, ptr noundef %140, ptr noundef %141, i32 noundef %142)
  store i32 %143, ptr %17, align 4, !tbaa !4
  br label %144

144:                                              ; preds = %138, %89, %71
  %145 = load i32, ptr %17, align 4, !tbaa !4
  call void @llvm.lifetime.end.p0(i64 4, ptr %17) #11
  call void @llvm.lifetime.end.p0(i64 4, ptr %16) #11
  call void @llvm.lifetime.end.p0(i64 4, ptr %15) #11
  ret i32 %145
}