; Function Attrs: nounwind uwtable
define internal fastcc i32 @slicendump(i64 noundef range(i64 0, -9223372036854775808) %0, ptr noundef nonnull readonly captures(none) %1, ptr noundef nonnull readonly captures(none) %2, ptr noundef nonnull captures(none) %3, ptr noundef nonnull captures(none) %4, i32 noundef range(i32 0, -2147483648) %5, i32 noundef range(i32 0, -2147483648) %6) unnamed_addr #9 {
  %8 = sub nsw i32 %5, %6
  %9 = add nsw i32 %6, -1
  %10 = icmp samesign ugt i32 %6, 1
  %11 = sext i32 %8 to i64
  br i1 %10, label %.preheader, label %..loopexit_crit_edge

..loopexit_crit_edge:                             ; preds = %7
  %.phi.trans.insert73 = getelementptr inbounds i64, ptr %2, i64 %11
  %.pre = load i64, ptr %.phi.trans.insert73, align 8, !tbaa !18
  %.phi.trans.insert75 = getelementptr inbounds i64, ptr %1, i64 %11
  %.pre76 = load i64, ptr %.phi.trans.insert75, align 8, !tbaa !18
  br label %.loopexit

.preheader:                                       ; preds = %7
  %12 = getelementptr inbounds i64, ptr %1, i64 %11
  %13 = getelementptr inbounds i64, ptr %2, i64 %11
  %14 = load i64, ptr %12, align 8, !tbaa !18
  %15 = load i64, ptr %13, align 8, !tbaa !18
  %.63 = tail call i64 @llvm.umin.i64(i64 %14, i64 %15)
  %16 = icmp sgt i64 %.63, 0
  br i1 %16, label %.lr.ph, label %.loopexit

.lr.ph:                                           ; preds = %.preheader
  %17 = getelementptr inbounds i64, ptr %3, i64 %11
  br label %22

18:                                               ; preds = %22
  %indvars.iv.next = add nuw nsw i64 %indvars.iv, 1
  %19 = load i64, ptr %12, align 8, !tbaa !18
  %20 = load i64, ptr %13, align 8, !tbaa !18
  %. = tail call i64 @llvm.umin.i64(i64 %19, i64 %20)
  %21 = icmp sgt i64 %., %indvars.iv.next
  br i1 %21, label %22, label %.loopexit, !llvm.loop !35

22:                                               ; preds = %.lr.ph, %18
  %indvars.iv = phi i64 [ 0, %.lr.ph ], [ %indvars.iv.next, %18 ]
  store i64 %indvars.iv, ptr %17, align 8, !tbaa !18
  %23 = tail call fastcc i32 @slicendump(i64 noundef %0, ptr noundef %1, ptr noundef %2, ptr noundef %3, ptr noundef %4, i32 noundef %5, i32 noundef %9)
  %24 = icmp slt i32 %23, 0
  br i1 %24, label %.loopexit61, label %18

.loopexit:                                        ; preds = %18, %..loopexit_crit_edge, %.preheader
  %25 = phi i64 [ %.pre76, %..loopexit_crit_edge ], [ %14, %.preheader ], [ %19, %18 ]
  %26 = phi i64 [ %.pre, %..loopexit_crit_edge ], [ %15, %.preheader ], [ %20, %18 ]
  %.0 = phi i32 [ 0, %..loopexit_crit_edge ], [ 0, %.preheader ], [ %23, %18 ]
  %.not = icmp ugt i64 %26, %25
  br i1 %.not, label %27, label %.loopexit61

27:                                               ; preds = %.loopexit
  %28 = getelementptr inbounds i64, ptr %1, i64 %11
  %29 = getelementptr inbounds i64, ptr %2, i64 %11
  %30 = getelementptr inbounds i64, ptr %3, i64 %11
  store i64 %25, ptr %30, align 8, !tbaa !18
  %31 = load i64, ptr %29, align 8, !tbaa !18
  %32 = load i64, ptr %28, align 8, !tbaa !18
  %33 = sub i64 %31, %32
  %34 = getelementptr inbounds i64, ptr %4, i64 %11
  store i64 %33, ptr %34, align 8, !tbaa !18
  %.15265 = add nsw i32 %8, 1
  %35 = icmp slt i32 %.15265, %5
  br i1 %35, label %.lr.ph67.preheader, label %._crit_edge

.lr.ph67.preheader:                               ; preds = %27
  %36 = sext i32 %.15265 to i64
  br label %.lr.ph67

.lr.ph67:                                         ; preds = %.lr.ph67.preheader, %.lr.ph67
  %indvars.iv70 = phi i64 [ %36, %.lr.ph67.preheader ], [ %indvars.iv.next71, %.lr.ph67 ]
  %37 = getelementptr inbounds i64, ptr %3, i64 %indvars.iv70
  store i64 0, ptr %37, align 8, !tbaa !18
  %38 = getelementptr inbounds i64, ptr %2, i64 %indvars.iv70
  %39 = load i64, ptr %38, align 8, !tbaa !18
  %40 = getelementptr inbounds i64, ptr %4, i64 %indvars.iv70
  store i64 %39, ptr %40, align 8, !tbaa !18
  %indvars.iv.next71 = add nsw i64 %indvars.iv70, 1
  %lftr.wideiv = trunc i64 %indvars.iv.next71 to i32
  %exitcond.not = icmp eq i32 %5, %lftr.wideiv
  br i1 %exitcond.not, label %._crit_edge, label %.lr.ph67, !llvm.loop !36

._crit_edge:                                      ; preds = %.lr.ph67, %27
  %41 = tail call fastcc i32 @doprint(i64 noundef %0, ptr noundef %3, ptr noundef %4, i32 noundef %5)
  br label %.loopexit61

.loopexit61:                                      ; preds = %22, %.loopexit, %._crit_edge
  %.2 = phi i32 [ %.0, %.loopexit ], [ %41, %._crit_edge ], [ %23, %22 ]
  ret i32 %.2
}